; Function Attrs: mustprogress uwtable
define void @_ZNK32pxrInternal_v0_24__pxrReserved__18UsdGeomPrimvarsAPI13CreatePrimvarERKNS_7TfTokenERKNS_16SdfValueTypeNameES3_i(ptr dead_on_unwind noalias writable sret(%"class.pxrInternal_v0_24__pxrReserved__::UsdGeomPrimvar") align 8 %0, ptr noundef nonnull align 8 dereferenceable(32) %1, ptr noundef nonnull align 8 dereferenceable(8) %2, ptr noundef nonnull align 8 dereferenceable(8) %3, ptr noundef nonnull align 8 dereferenceable(8) %4, i32 noundef %5) local_unnamed_addr #0 align 2 personality ptr @__gxx_personality_v0 {
  %7 = alloca %"class.pxrInternal_v0_24__pxrReserved__::UsdPrim", align 8
  %8 = getelementptr inbounds nuw i8, ptr %1, i64 8
  %9 = getelementptr inbounds nuw i8, ptr %1, i64 16
  call void @_ZN32pxrInternal_v0_24__pxrReserved__9UsdObjectC2ERKNS_18Usd_PrimDataHandleERKNS_7SdfPathE(ptr noundef nonnull align 8 dereferenceable(32) %7, ptr noundef nonnull align 8 dereferenceable(8) %8, ptr noundef nonnull align 4 dereferenceable(8) %9)
  invoke void @_ZN32pxrInternal_v0_24__pxrReserved__14UsdGeomPrimvarC1ERKNS_7UsdPrimERKNS_7TfTokenERKNS_16SdfValueTypeNameE(ptr noundef nonnull align 8 dereferenceable(44) %0, ptr noundef nonnull align 8 dereferenceable(32) %7, ptr noundef nonnull align 8 dereferenceable(8) %2, ptr noundef nonnull align 8 dereferenceable(8) %3)
          to label %10 unwind label %17

10:                                               ; preds = %6
  %11 = invoke noundef zeroext i1 @_ZN32pxrInternal_v0_24__pxrReserved__14UsdGeomPrimvar9IsPrimvarERKNS_12UsdAttributeE(ptr noundef nonnull align 8 dereferenceable(32) %0)
          to label %_ZNK32pxrInternal_v0_24__pxrReserved__14UsdGeomPrimvarcvbEv.exit unwind label %19

_ZNK32pxrInternal_v0_24__pxrReserved__14UsdGeomPrimvarcvbEv.exit: ; preds = %10
  br i1 %11, label %12, label %25

12:                                               ; preds = %_ZNK32pxrInternal_v0_24__pxrReserved__14UsdGeomPrimvarcvbEv.exit
  %13 = load ptr, ptr %4, align 8
  %14 = icmp eq ptr %13, null
  br i1 %14, label %21, label %15

15:                                               ; preds = %12
  %16 = invoke noundef zeroext i1 @_ZN32pxrInternal_v0_24__pxrReserved__14UsdGeomPrimvar16SetInterpolationERKNS_7TfTokenE(ptr noundef nonnull align 8 dereferenceable(44) %0, ptr noundef nonnull align 8 dereferenceable(8) %4)
          to label %21 unwind label %19

17:                                               ; preds = %6
  %18 = landingpad { ptr, i32 }
          cleanup
  br label %59

19:                                               ; preds = %10, %23, %15
  %20 = landingpad { ptr, i32 }
          cleanup
  call void @_ZN32pxrInternal_v0_24__pxrReserved__14UsdGeomPrimvarD2Ev(ptr noundef nonnull align 8 dereferenceable(44) %0) #17
  br label %59

21:                                               ; preds = %15, %12
  %22 = icmp sgt i32 %5, 0
  br i1 %22, label %23, label %25

23:                                               ; preds = %21
  %24 = invoke noundef zeroext i1 @_ZN32pxrInternal_v0_24__pxrReserved__14UsdGeomPrimvar14SetElementSizeEi(ptr noundef nonnull align 8 dereferenceable(44) %0, i32 noundef %5)
          to label %25 unwind label %19

25:                                               ; preds = %_ZNK32pxrInternal_v0_24__pxrReserved__14UsdGeomPrimvarcvbEv.exit, %23, %21
  %26 = getelementptr inbounds nuw i8, ptr %7, i64 24
  %27 = load ptr, ptr %26, align 8
  %28 = ptrtoint ptr %27 to i64
  %29 = and i64 %28, 7
  %.not.i.i.i.i = icmp eq i64 %29, 0
  br i1 %.not.i.i.i.i, label %_ZN32pxrInternal_v0_24__pxrReserved__7TfTokenD2Ev.exit.i.i, label %30

30:                                               ; preds = %25
  %31 = and i64 %28, -8
  %32 = inttoptr i64 %31 to ptr
  %33 = atomicrmw sub ptr %32, i32 2 release, align 4
  br label %_ZN32pxrInternal_v0_24__pxrReserved__7TfTokenD2Ev.exit.i.i

_ZN32pxrInternal_v0_24__pxrReserved__7TfTokenD2Ev.exit.i.i: ; preds = %30, %25
  %34 = getelementptr inbounds nuw i8, ptr %7, i64 16
  %35 = load i32, ptr %34, align 8
  %.not.i.i1.i.i = icmp eq i32 %35, 0
  br i1 %.not.i.i1.i.i, label %_ZN32pxrInternal_v0_24__pxrReserved__7SdfPathD2Ev.exit.i.i, label %36

36:                                               ; preds = %_ZN32pxrInternal_v0_24__pxrReserved__7TfTokenD2Ev.exit.i.i
  %37 = and i32 %35, 255
  %38 = lshr i32 %35, 8
  %39 = zext nneg i32 %37 to i64
  %40 = getelementptr inbounds [257 x ptr], ptr @_ZN32pxrInternal_v0_24__pxrReserved__8Sdf_PoolINS_15Sdf_PathPrimTagELj24ELj8ELj16384EE13_regionStartsE, i64 0, i64 %39
  %41 = load ptr, ptr %40, align 8
  %42 = mul nuw nsw i32 %38, 24
  %43 = zext nneg i32 %42 to i64
  %44 = getelementptr inbounds i8, ptr %41, i64 %43
  %45 = getelementptr inbounds nuw i8, ptr %44, i64 8
  %46 = atomicrmw sub ptr %45, i32 1 seq_cst, align 4
  %47 = and i32 %46, 2147483647
  %48 = icmp eq i32 %47, 1
  br i1 %48, label %49, label %_ZN32pxrInternal_v0_24__pxrReserved__7SdfPathD2Ev.exit.i.i

49:                                               ; preds = %36
  invoke void @_ZNK32pxrInternal_v0_24__pxrReserved__12Sdf_PathNode8_DestroyEv(ptr noundef nonnull align 8 dereferenceable(16) %44)
          to label %_ZN32pxrInternal_v0_24__pxrReserved__7SdfPathD2Ev.exit.i.i unwind label %50

50:                                               ; preds = %49
  %51 = landingpad { ptr, i32 }
          catch ptr null
  %52 = extractvalue { ptr, i32 } %51, 0
  call void @__clang_call_terminate(ptr %52) #19
  unreachable

_ZN32pxrInternal_v0_24__pxrReserved__7SdfPathD2Ev.exit.i.i: ; preds = %49, %36, %_ZN32pxrInternal_v0_24__pxrReserved__7TfTokenD2Ev.exit.i.i
  %53 = getelementptr inbounds nuw i8, ptr %7, i64 8
  %54 = load ptr, ptr %53, align 8
  %.not.i.i.i.i.i = icmp eq ptr %54, null
  br i1 %.not.i.i.i.i.i, label %_ZN32pxrInternal_v0_24__pxrReserved__7UsdPrimD2Ev.exit, label %55

55:                                               ; preds = %_ZN32pxrInternal_v0_24__pxrReserved__7SdfPathD2Ev.exit.i.i
  %56 = getelementptr inbounds nuw i8, ptr %54, i64 48
  %57 = atomicrmw sub ptr %56, i64 1 release, align 8
  %.not1.i.i.i.i.i = icmp eq i64 %57, 1
  br i1 %.not1.i.i.i.i.i, label %58, label %_ZN32pxrInternal_v0_24__pxrReserved__7UsdPrimD2Ev.exit

58:                                               ; preds = %55
  call void @_ZN32pxrInternal_v0_24__pxrReserved__12Usd_PrimDataD1Ev(ptr noundef nonnull align 8 dereferenceable(64) %54) #17
  call void @_ZdlPvm(ptr noundef nonnull %54, i64 noundef 64) #18
  br label %_ZN32pxrInternal_v0_24__pxrReserved__7UsdPrimD2Ev.exit

_ZN32pxrInternal_v0_24__pxrReserved__7UsdPrimD2Ev.exit: ; preds = %_ZN32pxrInternal_v0_24__pxrReserved__7SdfPathD2Ev.exit.i.i, %55, %58
  ret void

59:                                               ; preds = %19, %17
  %.pn = phi { ptr, i32 } [ %20, %19 ], [ %18, %17 ]
  call void @_ZN32pxrInternal_v0_24__pxrReserved__7UsdPrimD2Ev(ptr noundef nonnull align 8 dereferenceable(32) %7) #17
  resume { ptr, i32 } %.pn
}